target datalayout = "e-m:e-p270:32:32-p271:32:32-p272:64:64-i64:64-i128:128-f80:128-n8:16:32:64-S128"
target triple = "x86_64-unknown-linux-gnu"

%"class.arrow::compute::internal::RowEncoder" = type { ptr, %"class.std::vector.59", %"class.std::vector.64", %"class.std::vector.69", %"class.std::vector.69", %"class.std::vector.74" }
%"class.std::vector.59" = type { %"struct.std::_Vector_base.60" }
%"struct.std::_Vector_base.60" = type { %"struct.std::_Vector_base<std::shared_ptr<arrow::compute::internal::KeyEncoder>, std::allocator<std::shared_ptr<arrow::compute::internal::KeyEncoder>>>::_Vector_impl" }
%"struct.std::_Vector_base<std::shared_ptr<arrow::compute::internal::KeyEncoder>, std::allocator<std::shared_ptr<arrow::compute::internal::KeyEncoder>>>::_Vector_impl" = type { %"struct.std::_Vector_base<std::shared_ptr<arrow::compute::internal::KeyEncoder>, std::allocator<std::shared_ptr<arrow::compute::internal::KeyEncoder>>>::_Vector_impl_data" }
%"struct.std::_Vector_base<std::shared_ptr<arrow::compute::internal::KeyEncoder>, std::allocator<std::shared_ptr<arrow::compute::internal::KeyEncoder>>>::_Vector_impl_data" = type { ptr, ptr, ptr }
%"class.std::vector.64" = type { %"struct.std::_Vector_base.65" }
%"struct.std::_Vector_base.65" = type { %"struct.std::_Vector_base<int, std::allocator<int>>::_Vector_impl" }
%"struct.std::_Vector_base<int, std::allocator<int>>::_Vector_impl" = type { %"struct.std::_Vector_base<int, std::allocator<int>>::_Vector_impl_data" }
%"struct.std::_Vector_base<int, std::allocator<int>>::_Vector_impl_data" = type { ptr, ptr, ptr }
%"class.std::vector.69" = type { %"struct.std::_Vector_base.70" }
%"struct.std::_Vector_base.70" = type { %"struct.std::_Vector_base<unsigned char, std::allocator<unsigned char>>::_Vector_impl" }
%"struct.std::_Vector_base<unsigned char, std::allocator<unsigned char>>::_Vector_impl" = type { %"struct.std::_Vector_base<unsigned char, std::allocator<unsigned char>>::_Vector_impl_data" }
%"struct.std::_Vector_base<unsigned char, std::allocator<unsigned char>>::_Vector_impl_data" = type { ptr, ptr, ptr }
%"class.std::vector.74" = type { %"struct.std::_Vector_base.75" }
%"struct.std::_Vector_base.75" = type { %"struct.std::_Vector_base<std::shared_ptr<arrow::ExtensionType>, std::allocator<std::shared_ptr<arrow::ExtensionType>>>::_Vector_impl" }
%"struct.std::_Vector_base<std::shared_ptr<arrow::ExtensionType>, std::allocator<std::shared_ptr<arrow::ExtensionType>>>::_Vector_impl" = type { %"struct.std::_Vector_base<std::shared_ptr<arrow::ExtensionType>, std::allocator<std::shared_ptr<arrow::ExtensionType>>>::_Vector_impl_data" }
%"struct.std::_Vector_base<std::shared_ptr<arrow::ExtensionType>, std::allocator<std::shared_ptr<arrow::ExtensionType>>>::_Vector_impl_data" = type { ptr, ptr, ptr }

; Function Attrs: mustprogress nounwind uwtable
define linkonce_odr void @_ZNSt12_Destroy_auxILb1EE9__destroyIPhEEvT_S3_(ptr noundef %0, ptr noundef %1) #2 comdat align 2 {
entry:
  %.addr = alloca ptr, align 8
  %.addr1 = alloca ptr, align 8
  store ptr %0, ptr %.addr, align 8
  store ptr %1, ptr %.addr1, align 8
  ret void
}

; Function Attrs: mustprogress nounwind uwtable
define linkonce_odr void @_ZNSt12_Destroy_auxILb1EE9__destroyIPiEEvT_S3_(ptr noundef %0, ptr noundef %1) #2 comdat align 2 {
entry:
  %.addr = alloca ptr, align 8
  %.addr1 = alloca ptr, align 8
  store ptr %0, ptr %.addr, align 8
  store ptr %1, ptr %.addr1, align 8
  ret void
}

; Function Attrs: mustprogress uwtable
define linkonce_odr void @_ZSt8_DestroyIPhEvT_S1_(ptr noundef %__first, ptr noundef %__last) #0 comdat {
entry:
  %__first.addr = alloca ptr, align 8
  %__last.addr = alloca ptr, align 8
  store ptr %__first, ptr %__first.addr, align 8
  store ptr %__last, ptr %__last.addr, align 8
  %0 = load ptr, ptr %__first.addr, align 8
  %1 = load ptr, ptr %__last.addr, align 8
  call void @_ZNSt12_Destroy_auxILb1EE9__destroyIPhEEvT_S3_(ptr noundef %0, ptr noundef %1)
  ret void
}

; Function Attrs: mustprogress uwtable
define linkonce_odr void @_ZSt8_DestroyIPiEvT_S1_(ptr noundef %__first, ptr noundef %__last) #0 comdat {
entry:
  %__first.addr = alloca ptr, align 8
  %__last.addr = alloca ptr, align 8
  store ptr %__first, ptr %__first.addr, align 8
  store ptr %__last, ptr %__last.addr, align 8
  %0 = load ptr, ptr %__first.addr, align 8
  %1 = load ptr, ptr %__last.addr, align 8
  call void @_ZNSt12_Destroy_auxILb1EE9__destroyIPiEEvT_S3_(ptr noundef %0, ptr noundef %1)
  ret void
}

; Function Attrs: mustprogress uwtable
define linkonce_odr void @_ZSt8_DestroyIPhhEvT_S1_RSaIT0_E(ptr noundef %__first, ptr noundef %__last, ptr noundef nonnull align 1 dereferenceable(1) %0) #0 comdat {
entry:
  %__first.addr = alloca ptr, align 8
  %__last.addr = alloca ptr, align 8
  %.addr = alloca ptr, align 8
  store ptr %__first, ptr %__first.addr, align 8
  store ptr %__last, ptr %__last.addr, align 8
  store ptr %0, ptr %.addr, align 8
  %1 = load ptr, ptr %__first.addr, align 8
  %2 = load ptr, ptr %__last.addr, align 8
  call void @_ZSt8_DestroyIPhEvT_S1_(ptr noundef %1, ptr noundef %2)
  ret void
}

; Function Attrs: mustprogress nounwind uwtable
define linkonce_odr noundef nonnull align 1 dereferenceable(1) ptr @_ZNSt12_Vector_baseIhSaIhEE19_M_get_Tp_allocatorEv(ptr noundef nonnull align 8 dereferenceable(24) %this) #2 comdat align 2 {
entry:
  %this.addr = alloca ptr, align 8
  store ptr %this, ptr %this.addr, align 8
  %this1 = load ptr, ptr %this.addr, align 8
  %_M_impl = getelementptr inbounds %"struct.std::_Vector_base.70", ptr %this1, i32 0, i32 0
  ret ptr %_M_impl
}

; Function Attrs: noreturn nounwind uwtable
define linkonce_odr hidden void @__clang_call_terminate(ptr noundef %0) #7 comdat {
  %2 = call ptr @__cxa_begin_catch(ptr %0) #12
  call void @_ZSt9terminatev() #15
  unreachable
}

; Function Attrs: mustprogress uwtable
define linkonce_odr void @_ZSt8_DestroyIPiiEvT_S1_RSaIT0_E(ptr noundef %__first, ptr noundef %__last, ptr noundef nonnull align 1 dereferenceable(1) %0) #0 comdat {
entry:
  %__first.addr = alloca ptr, align 8
  %__last.addr = alloca ptr, align 8
  %.addr = alloca ptr, align 8
  store ptr %__first, ptr %__first.addr, align 8
  store ptr %__last, ptr %__last.addr, align 8
  store ptr %0, ptr %.addr, align 8
  %1 = load ptr, ptr %__first.addr, align 8
  %2 = load ptr, ptr %__last.addr, align 8
  call void @_ZSt8_DestroyIPiEvT_S1_(ptr noundef %1, ptr noundef %2)
  ret void
}

; Function Attrs: mustprogress nounwind uwtable
define linkonce_odr noundef nonnull align 1 dereferenceable(1) ptr @_ZNSt12_Vector_baseIiSaIiEE19_M_get_Tp_allocatorEv(ptr noundef nonnull align 8 dereferenceable(24) %this) #2 comdat align 2 {
entry:
  %this.addr = alloca ptr, align 8
  store ptr %this, ptr %this.addr, align 8
  %this1 = load ptr, ptr %this.addr, align 8
  %_M_impl = getelementptr inbounds %"struct.std::_Vector_base.65", ptr %this1, i32 0, i32 0
  ret ptr %_M_impl
}

; Function Attrs: mustprogress nounwind uwtable
define linkonce_odr void @_ZNSt6vectorIhSaIhEE15_M_erase_at_endEPh(ptr noundef nonnull align 8 dereferenceable(24) %this, ptr noundef %__pos) #2 comdat align 2 personality ptr @__gxx_personality_v0 {
entry:
  %this.addr = alloca ptr, align 8
  %__pos.addr = alloca ptr, align 8
  %__n = alloca i64, align 8
  store ptr %this, ptr %this.addr, align 8
  store ptr %__pos, ptr %__pos.addr, align 8
  %this1 = load ptr, ptr %this.addr, align 8
  %_M_impl = getelementptr inbounds %"struct.std::_Vector_base.70", ptr %this1, i32 0, i32 0
  %_M_finish = getelementptr inbounds %"struct.std::_Vector_base<unsigned char, std::allocator<unsigned char>>::_Vector_impl_data", ptr %_M_impl, i32 0, i32 1
  %0 = load ptr, ptr %_M_finish, align 8
  %1 = load ptr, ptr %__pos.addr, align 8
  %sub.ptr.lhs.cast = ptrtoint ptr %0 to i64
  %sub.ptr.rhs.cast = ptrtoint ptr %1 to i64
  %sub.ptr.sub = sub i64 %sub.ptr.lhs.cast, %sub.ptr.rhs.cast
  store i64 %sub.ptr.sub, ptr %__n, align 8
  %2 = load i64, ptr %__n, align 8
  %tobool = icmp ne i64 %2, 0
  br i1 %tobool, label %if.then, label %if.end

if.then:                                          ; preds = %entry
  %3 = load ptr, ptr %__pos.addr, align 8
  %_M_impl2 = getelementptr inbounds %"struct.std::_Vector_base.70", ptr %this1, i32 0, i32 0
  %_M_finish3 = getelementptr inbounds %"struct.std::_Vector_base<unsigned char, std::allocator<unsigned char>>::_Vector_impl_data", ptr %_M_impl2, i32 0, i32 1
  %4 = load ptr, ptr %_M_finish3, align 8
  %call = call noundef nonnull align 1 dereferenceable(1) ptr @_ZNSt12_Vector_baseIhSaIhEE19_M_get_Tp_allocatorEv(ptr noundef nonnull align 8 dereferenceable(24) %this1) #12
  invoke void @_ZSt8_DestroyIPhhEvT_S1_RSaIT0_E(ptr noundef %3, ptr noundef %4, ptr noundef nonnull align 1 dereferenceable(1) %call)
          to label %invoke.cont unwind label %terminate.lpad

invoke.cont:                                      ; preds = %if.then
  %5 = load ptr, ptr %__pos.addr, align 8
  %_M_impl4 = getelementptr inbounds %"struct.std::_Vector_base.70", ptr %this1, i32 0, i32 0
  %_M_finish5 = getelementptr inbounds %"struct.std::_Vector_base<unsigned char, std::allocator<unsigned char>>::_Vector_impl_data", ptr %_M_impl4, i32 0, i32 1
  store ptr %5, ptr %_M_finish5, align 8
  br label %if.end

if.end:                                           ; preds = %invoke.cont, %entry
  ret void

terminate.lpad:                                   ; preds = %if.then
  %6 = landingpad { ptr, i32 }
          catch ptr null
  %7 = extractvalue { ptr, i32 } %6, 0
  call void @__clang_call_terminate(ptr %7) #15
  unreachable
}

; Function Attrs: mustprogress nounwind uwtable
define linkonce_odr void @_ZNSt6vectorIiSaIiEE15_M_erase_at_endEPi(ptr noundef nonnull align 8 dereferenceable(24) %this, ptr noundef %__pos) #2 comdat align 2 personality ptr @__gxx_personality_v0 {
entry:
  %this.addr = alloca ptr, align 8
  %__pos.addr = alloca ptr, align 8
  %__n = alloca i64, align 8
  store ptr %this, ptr %this.addr, align 8
  store ptr %__pos, ptr %__pos.addr, align 8
  %this1 = load ptr, ptr %this.addr, align 8
  %_M_impl = getelementptr inbounds %"struct.std::_Vector_base.65", ptr %this1, i32 0, i32 0
  %_M_finish = getelementptr inbounds %"struct.std::_Vector_base<int, std::allocator<int>>::_Vector_impl_data", ptr %_M_impl, i32 0, i32 1
  %0 = load ptr, ptr %_M_finish, align 8
  %1 = load ptr, ptr %__pos.addr, align 8
  %sub.ptr.lhs.cast = ptrtoint ptr %0 to i64
  %sub.ptr.rhs.cast = ptrtoint ptr %1 to i64
  %sub.ptr.sub = sub i64 %sub.ptr.lhs.cast, %sub.ptr.rhs.cast
  %sub.ptr.div = sdiv exact i64 %sub.ptr.sub, 4
  store i64 %sub.ptr.div, ptr %__n, align 8
  %2 = load i64, ptr %__n, align 8
  %tobool = icmp ne i64 %2, 0
  br i1 %tobool, label %if.then, label %if.end

if.then:                                          ; preds = %entry
  %3 = load ptr, ptr %__pos.addr, align 8
  %_M_impl2 = getelementptr inbounds %"struct.std::_Vector_base.65", ptr %this1, i32 0, i32 0
  %_M_finish3 = getelementptr inbounds %"struct.std::_Vector_base<int, std::allocator<int>>::_Vector_impl_data", ptr %_M_impl2, i32 0, i32 1
  %4 = load ptr, ptr %_M_finish3, align 8
  %call = call noundef nonnull align 1 dereferenceable(1) ptr @_ZNSt12_Vector_baseIiSaIiEE19_M_get_Tp_allocatorEv(ptr noundef nonnull align 8 dereferenceable(24) %this1) #12
  invoke void @_ZSt8_DestroyIPiiEvT_S1_RSaIT0_E(ptr noundef %3, ptr noundef %4, ptr noundef nonnull align 1 dereferenceable(1) %call)
          to label %invoke.cont unwind label %terminate.lpad

invoke.cont:                                      ; preds = %if.then
  %5 = load ptr, ptr %__pos.addr, align 8
  %_M_impl4 = getelementptr inbounds %"struct.std::_Vector_base.65", ptr %this1, i32 0, i32 0
  %_M_finish5 = getelementptr inbounds %"struct.std::_Vector_base<int, std::allocator<int>>::_Vector_impl_data", ptr %_M_impl4, i32 0, i32 1
  store ptr %5, ptr %_M_finish5, align 8
  br label %if.end

if.end:                                           ; preds = %invoke.cont, %entry
  ret void

terminate.lpad:                                   ; preds = %if.then
  %6 = landingpad { ptr, i32 }
          catch ptr null
  %7 = extractvalue { ptr, i32 } %6, 0
  call void @__clang_call_terminate(ptr %7) #15
  unreachable
}

; Function Attrs: mustprogress nounwind uwtable
define linkonce_odr void @_ZNSt6vectorIhSaIhEE5clearEv(ptr noundef nonnull align 8 dereferenceable(24) %this) #2 comdat align 2 {
entry:
  %this.addr = alloca ptr, align 8
  store ptr %this, ptr %this.addr, align 8
  %this1 = load ptr, ptr %this.addr, align 8
  %_M_impl = getelementptr inbounds %"struct.std::_Vector_base.70", ptr %this1, i32 0, i32 0
  %_M_start = getelementptr inbounds %"struct.std::_Vector_base<unsigned char, std::allocator<unsigned char>>::_Vector_impl_data", ptr %_M_impl, i32 0, i32 0
  %0 = load ptr, ptr %_M_start, align 8
  call void @_ZNSt6vectorIhSaIhEE15_M_erase_at_endEPh(ptr noundef nonnull align 8 dereferenceable(24) %this1, ptr noundef %0) #12
  ret void
}

; Function Attrs: mustprogress nounwind uwtable
define linkonce_odr void @_ZNSt6vectorIiSaIiEE5clearEv(ptr noundef nonnull align 8 dereferenceable(24) %this) #2 comdat align 2 {
entry:
  %this.addr = alloca ptr, align 8
  store ptr %this, ptr %this.addr, align 8
  %this1 = load ptr, ptr %this.addr, align 8
  %_M_impl = getelementptr inbounds %"struct.std::_Vector_base.65", ptr %this1, i32 0, i32 0
  %_M_start = getelementptr inbounds %"struct.std::_Vector_base<int, std::allocator<int>>::_Vector_impl_data", ptr %_M_impl, i32 0, i32 0
  %0 = load ptr, ptr %_M_start, align 8
  call void @_ZNSt6vectorIiSaIiEE15_M_erase_at_endEPi(ptr noundef nonnull align 8 dereferenceable(24) %this1, ptr noundef %0) #12
  ret void
}

; Function Attrs: mustprogress nounwind uwtable
define void @_ZN5arrow7compute8internal10RowEncoder5ClearEv(ptr noundef nonnull align 8 dereferenceable(128) %this) #2 align 2 {
entry:
  %this.addr = alloca ptr, align 8
  store ptr %this, ptr %this.addr, align 8
  %this1 = load ptr, ptr %this.addr, align 8
  %offsets_ = getelementptr inbounds %"class.arrow::compute::internal::RowEncoder", ptr %this1, i32 0, i32 2
  call void @_ZNSt6vectorIiSaIiEE5clearEv(ptr noundef nonnull align 8 dereferenceable(24) %offsets_) #12
  %bytes_ = getelementptr inbounds %"class.arrow::compute::internal::RowEncoder", ptr %this1, i32 0, i32 3
  call void @_ZNSt6vectorIhSaIhEE5clearEv(ptr noundef nonnull align 8 dereferenceable(24) %bytes_) #12
  ret void
}