; Function Attrs: mustprogress nofree norecurse nosync nounwind willreturn memory(argmem: readwrite) uwtable
define void @_ZN5arrow7compute8internal10RowEncoder5ClearEv(ptr nocapture noundef nonnull align 8 dereferenceable(128) %this) local_unnamed_addr #4 align 2 personality ptr @__gxx_personality_v0 {
entry:
  %offsets_ = getelementptr inbounds i8, ptr %this, i64 32
  %0 = load ptr, ptr %offsets_, align 8
  %_M_finish.i.i = getelementptr inbounds i8, ptr %this, i64 40
  %1 = load ptr, ptr %_M_finish.i.i, align 8
  %tobool.not.i.i = icmp eq ptr %1, %0
  br i1 %tobool.not.i.i, label %_ZNSt6vectorIiSaIiEE5clearEv.exit, label %invoke.cont.i.i

invoke.cont.i.i:                                  ; preds = %entry
  store ptr %0, ptr %_M_finish.i.i, align 8
  br label %_ZNSt6vectorIiSaIiEE5clearEv.exit

_ZNSt6vectorIiSaIiEE5clearEv.exit:                ; preds = %entry, %invoke.cont.i.i
  %bytes_ = getelementptr inbounds i8, ptr %this, i64 56
  %2 = load ptr, ptr %bytes_, align 8
  %_M_finish.i.i1 = getelementptr inbounds i8, ptr %this, i64 64
  %3 = load ptr, ptr %_M_finish.i.i1, align 8
  %tobool.not.i.i2 = icmp eq ptr %3, %2
  br i1 %tobool.not.i.i2, label %_ZNSt6vectorIhSaIhEE5clearEv.exit, label %invoke.cont.i.i3

invoke.cont.i.i3:                                 ; preds = %_ZNSt6vectorIiSaIiEE5clearEv.exit
  store ptr %2, ptr %_M_finish.i.i1, align 8
  br label %_ZNSt6vectorIhSaIhEE5clearEv.exit

_ZNSt6vectorIhSaIhEE5clearEv.exit:                ; preds = %_ZNSt6vectorIiSaIiEE5clearEv.exit, %invoke.cont.i.i3
  ret void
}